(lp0
(lp1
(lp2
F0.49975012493753124
aF4.497751124437781
aF0.99950024987506247
aF6.9965017491254375
aF9.9950024987506261
aF32.983508245877061
aF6.4967516241879064
aF14.992503748125937
aF12.993503248375813
aF0.49975012493753124
aF24.987506246876563
aF23.988005997001501
aF19.990004997501252
aF6.4967516241879064
aF1.4992503748125938
aF16.991504247876062
aF6.4967516241879064
aF1.9990004997501249
aF2.4987506246876565
aF47.476261869065468
aF12.493753123438282
aF13.993003498250875
aF24.487756121939032
aF7.4962518740629687
aF5.9970014992503753
aF7.9960019990004998
aF15.492253873063468
aF23.48825587206397
aF16.991504247876062
aF22.988505747126439
aF8.4957521239380309
aF18.490754622688655
aF1.9990004997501249
aF19.990004997501252
aF18.990504747626186
aF5.4972513743128442
aF14.492753623188406
aF4.497751124437781
aF19.990004997501252
aF26.486756621689157
aF5.9970014992503753
aF3.4982508745627188
aF0.99950024987506247
aF20.489755122438783
aF8.4957521239380309
aF5.9970014992503753
aF1.4992503748125938
aF43.478260869565219
aF21.989005497251377
aF53.973013493253376
aF40.979510244877567
aF47.976011994003002
aF9.4952523738130932
aF3.9980009995002499
aF68.965517241379317
aF0.49975012493753124
aF39.980009995002504
aF3.4982508745627188
aF11.494252873563219
aF36.481759120439783
aF13.493253373313344
aF22.988505747126439
aa(lp3
F3.0333670374115269
aI0
aI0
aF6.0667340748230538
aF2.0222446916076846
aF2.0222446916076846
aI0
aF4.0444893832153692
aF1.0111223458038423
aI0
aF1.0111223458038423
aF1.0111223458038423
aF2.0222446916076846
aF1.0111223458038423
aF6.0667340748230538
aF100.10111223458038
aF2.0222446916076846
aF2.0222446916076846
aI0
aI0
aI0
aF41.456016177957537
aF19.211324570273003
aF1.0111223458038423
aI0
aF3.0333670374115269
aF1035.3892821031345
aF11.122345803842265
aF1.0111223458038423
aF48.533872598584431
aF3.0333670374115269
aF5.0556117290192111
aI0
aF4.0444893832153692
aF5.0556117290192111
aF1.0111223458038423
aI0
aF1.0111223458038423
aI0
aF7.0778564206268957
aI0
aI0
aI0
aI0
aI0
aF2.0222446916076846
aF2.0222446916076846
aI0
aF4.0444893832153692
aF31.344792719919109
aI0
aF11.122345803842265
aI0
aI0
aF5.0556117290192111
aI0
aI0
aF1.0111223458038423
aF5.0556117290192111
aF89.98988877654196
aF56.622851365015165
aF1.0111223458038423
aa(lp4
F6.6644075454648144
aF1.6943409013893596
aF0.11295606009262397
aF10.843781768891901
aF46.086072517790583
aF10.843781768891901
aF4.0664181633344629
aF9.6012651078730382
aF48.232237659550435
aF3.8405060431492148
aF8.3587484468541735
aF24.172596859821532
aF9.6012651078730382
aF2.5979893821303515
aF701.3441771151023
aF5.4218908844459506
aF5.7607590647238229
aF5.0830227041680791
aI0
aF33.886818027787193
aF3.727549983056591
aF9.2623969275951659
aF686.54693324296852
aF2.5979893821303515
aF0.79069242064836776
aF38.292104371399525
aF4.5182424037049591
aF48.684061899920934
aF12.764034790466509
aF80.876539026318767
aF5.0830227041680791
aF222.07161414209872
aF2.7109454422229753
aF56.703942166497235
aF108.77668586919688
aF4.8571105839828306
aF27.109454422229753
aF6.4384954252795668
aF3.162769682593471
aF35.468202869083925
aF1.1295606009262398
aF2.9368575624082234
aF1.1295606009262398
aF5.5348469445385744
aF4.4052863436123353
aF200.38405060431492
aF2.3720772619451034
aF1.2425166610188636
aF24.511465040099402
aF299.10764712526827
aF6.4384954252795668
aF517.33875522421783
aF1.3554727211114876
aF0.9036484807409918
aF2.4850333220377272
aI0
aF19.541398396023947
aF1.4684287812041117
aF10.617869648706654
aF333.5592454535186
aF2.5979893821303515
aF42.471478594826614
aa(lp5
F5.1495016611295688
aF1.8272425249169437
aI0
aF9.8837209302325597
aF31.976744186046513
aF7.6411960132890373
aF3.8205980066445187
aF9.9667774086378742
aF32.973421926910298
aF1.9933554817275749
aF9.0531561461794023
aF27.159468438538209
aF6.8106312292358808
aF2.0764119601328903
aF555.23255813953494
aF6.8936877076411962
aF4.6511627906976747
aF3.8205980066445187
aI0
aF25.41528239202658
aF4.4019933554817277
aF7.3920265780730903
aF600.91362126245849
aF2.3255813953488373
aF0.91362126245847186
aF33.139534883720934
aF2.0764119601328903
aF66.943521594684384
aF10.04983388704319
aF67.441860465116278
aF7.8073089700996681
aF291.02990033222591
aF1.4119601328903655
aF70.930232558139537
aF110.79734219269103
aF5.0664451827242525
aF25.913621262458474
aF5.897009966777409
aF3.4053156146179404
aF34.634551495016616
aF2.1594684385382061
aF2.4916943521594686
aF0.58139534883720934
aF4.4019933554817277
aF4.5681063122923593
aF291.4451827242525
aF1.2458471760797343
aF1.4950166112956811
aF28.903654485049834
aF279.5681063122924
aF7.6411960132890373
aF378.40531561461796
aF0.58139534883720934
aF0.66445182724252494
aF1.4950166112956811
aI0
aF17.940199335548176
aF1.6611295681063125
aF11.129568106312293
aF311.87707641196016
aF2.5747508305647844
aF40.448504983388709
aa(lp6
F1.9607843137254901
aF0.98039215686274506
aI0
aF0.98039215686274506
aF2.9411764705882351
aF3.9215686274509802
aF1.9607843137254901
aI0
aF1.9607843137254901
aI0
aF0.98039215686274506
aI0
aF0.98039215686274506
aI0
aF2.9411764705882351
aF89.215686274509807
aF0.98039215686274506
aI0
aI0
aF0.98039215686274506
aI0
aF22.549019607843135
aF2.9411764705882351
aI0
aF0.98039215686274506
aF2.9411764705882351
aF420.58823529411762
aF1.9607843137254901
aF0.98039215686274506
aF20.588235294117645
aF0.98039215686274506
aF5.8823529411764701
aI0
aF3.9215686274509802
aF3.9215686274509802
aF0.98039215686274506
aF1.9607843137254901
aI0
aI0
aF0.98039215686274506
aI0
aI0
aI0
aF1.9607843137254901
aI0
aF1.9607843137254901
aI0
aI0
aF0.98039215686274506
aF37.254901960784316
aF0.98039215686274506
aF5.8823529411764701
aF0.98039215686274506
aF0.98039215686274506
aF3.9215686274509802
aI0
aI0
aI0
aF0.98039215686274506
aF27.450980392156861
aF88.235294117647058
aF1.9607843137254901
aa(lp7
I0
aF1.8181818181818181
aI0
aF3.6363636363636362
aF1.8181818181818181
aF0.90909090909090906
aI0
aF1.8181818181818181
aF0.90909090909090906
aI0
aF1.8181818181818181
aI0
aF2.7272727272727271
aF0.90909090909090906
aF2.7272727272727271
aF109.09090909090908
aF0.90909090909090906
aI0
aF1.8181818181818181
aF2.7272727272727271
aF0.90909090909090906
aF14.545454545454545
aF4.545454545454545
aI0
aI0
aF2.7272727272727271
aF375.45454545454544
aF1.8181818181818181
aF1.8181818181818181
aF24.545454545454543
aF0.90909090909090906
aF3.6363636363636362
aI0
aI0
aF2.7272727272727271
aF3.6363636363636362
aF2.7272727272727271
aI0
aI0
aF3.6363636363636362
aI0
aI0
aI0
aI0
aI0
aI0
aF0.90909090909090906
aF0.90909090909090906
aF3.6363636363636362
aF21.818181818181817
aI0
aF8.1818181818181817
aI0
aF0.90909090909090906
aF7.2727272727272725
aI0
aF1.8181818181818181
aI0
aF0.90909090909090906
aF35.454545454545453
aF119.09090909090908
aF2.7272727272727271
aa(lp8
F10.961737331954499
aF3.9296794208893484
aI0
aF22.130299896587385
aF46.949327817993797
aF15.201654601861428
aF6.5149948293691828
aF17.683557394002069
aF74.457083764219234
aF2.3784901758014478
aF17.890382626680456
aF40.227507755946228
aF15.822130299896587
aF6.7218200620475699
aF1116.3391933815926
aF13.547052740434333
aF9.5139607032057913
aF5.5842812823164429
aI0
aF55.222337125129265
aF7.3422957600827301
aF13.44364012409514
aF1021.4064115822131
aF4.7569803516028957
aF2.7921406411582215
aF44.157187176835578
aF8.5832471561530514
aF83.867631851085832
aF27.714581178903828
aF164.83971044467424
aF19.23474663908997
aF614.68459152016544
aF4.1365046535677354
aF176.93898655635988
aF241.88210961737332
aF9.9276111685625654
aF56.566701137538779
aF11.789038262668045
aF9.8241985522233719
aF91.313340227507751
aF4.6535677352637022
aF6.8252326783867634
aF2.0682523267838677
aF13.75387797311272
aF8.1695966907962774
aF758.32471561530508
aF2.688728024819028
aF4.4467425025853151
aF44.364012409513961
aF594.10548086866595
aF17.890382626680456
aF586.45294725956569
aF2.688728024819028
aF2.2750775594622543
aF2.8955532574974145
aI0
aF47.052740434332989
aF2.3784901758014478
aF22.337125129265772
aF572.28541882109619
aF13.236814891416753
aF96.587383660806623
aaa(lp9
F1000.0
aF1529.8281092012135
aF3780.1875070597539
aF3490.1162790697676
aF776.47058823529437
aF780.90909090909088
aF6901.7580144777676
aa(lp10
S'hg19'
p11
aS'ACAT'
p12
aS'AGTT'
p13
aS'ATCT'
p14
aS'CAGT'
p15
aS'GACT'
p16
aS'TCAT'
p17
aa(lp18
S'tRNA-Leu-CTA'
p19
aS'tRNA-Ile-ATC'
p20
aS'tRNA-Asn-AAT'
p21
aS'tRNA-Ser-AGY'
p22
aS'tRNA-Arg-AGG'
p23
aS'tRNA-Ile-ATA'
p24
aS'tRNA-Leu-TTA'
p25
aS'tRNA-Leu-CTY'
p26
aS'tRNA-Leu-TTG'
p27
aS'tRNA-Ser-TCA'
p28
aS'tRNA-Met'
p29
aS'tRNA-Met_'
p30
aS'tRNA-Arg-CGY_'
p31
aS'tRNA-Thr-ACY'
p32
aS'tRNA-SeC(e)-TGA'
p33
aS'tRNA-Gln-CAA_'
p34
aS'tRNA-Trp-TGG'
p35
aS'tRNA-Pro-CCG'
p36
aS'tRNA-Tyr-TAT'
p37
aS'tRNA-Glu-GAA'
p38
aS'tRNA-Thr-ACA'
p39
aS'tRNA-Ala-GCY'
p40
aS'tRNA-Asp-GAY'
p41
aS'tRNA-Ser-TCY'
p42
aS'tRNA-Thr-ACG_'
p43
aS'tRNA-Leu-CTG'
p44
aS'tRNA-Ser-TCA(m)'
p45
aS'tRNA-Lys-AAA'
p46
aS'tRNA-Tyr-TAC'
p47
aS'tRNA-Gly-GGG'
p48
aS'tRNA-Pro-CCY'
p49
aS'tRNA-Gly-GGY'
p50
aS'tRNA-Ser-TCA_'
p51
aS'tRNA-Met-i'
p52
aS'tRNA-Val-GTG'
p53
aS'tRNA-Ala-GCG'
p54
aS'tRNA-Val-GTY'
p55
aS'tRNA-Pro-CCA'
p56
aS'tRNA-Ala-GCA'
p57
aS'tRNA-Ile-ATT'
p58
aS'tRNA-Thr-ACY_'
p59
aS'tRNA-Ser-TCG'
p60
aS'tRNA-Arg-CGA_'
p61
aS'tRNA-Arg-AGA'
p62
aS'tRNA-Arg-CGG'
p63
aS'tRNA-Val-GTA'
p64
aS'tRNA-Thr-ACG'
p65
aS'tRNA-Phe-TTY'
p66
aS'tRNA-His-CAY_'
p67
aS'tRNA-Gly-GGA'
p68
aS'tRNA-Ala-GCY_'
p69
aS'tRNA-Glu-GAG_'
p70
aS'tRNA-Glu-GAG'
p71
aS'tRNA-Arg-CGA'
p72
aS'tRNA-Cys-TGY'
p73
aS'tRNA-His-CAY'
p74
aS'tRNA-Gln-CAG'
p75
aS'tRNA-Leu-CTA_'
p76
aS'tRNA-Gln-CAA'
p77
aS'tRNA-Lys-AAG'
p78
aS'tRNA-Leu-TTA(m)'
p79
aS'tRNA-Asn-AAC'
p80
aa.